#include <math.h>
#include <stdio.h>
#include <stdlib.h>
#include <string.h>

void main()
{
	int i,k;
	scanf("%d",&k);
	for(i=0;i<k;i++)
	{
		int n;
		scanf("%d",&n);
		double *p;
		p=(double *)malloc(sizeof(double)*n);
		int j;
		double sum=0.0;
		for(j=0;j<n;j++)
		{
			scanf("%lf",p+j);
			sum+=*(p+j);
		}
		double average;
		average=sum/n;
		double sum2=0.0;
		for(j=0;j<n;j++)
		{
			sum2+=(*(p+j)-average)*(*(p+j)-average);
		}
		double ave=sum2/n;
		double s;
		s=sqrt(ave);
		printf("%.5lf\n",s);
	}
}